target datalayout = "e-m:e-p270:32:32-p271:32:32-p272:64:64-i64:64-i128:128-f80:128-n8:16:32:64-S128"
target triple = "x86_64-pc-linux-gnu"

%struct.UOption = type { ptr, ptr, ptr, ptr, i8, i8, i8 }

@stderr = external global ptr, align 8
@.str.16 = private unnamed_addr constant [11 x i8] c"check-bidi\00", align 1
@.str.29 = private unnamed_addr constant [10 x i8] c"normalize\00", align 1
@.str.30 = private unnamed_addr constant [39 x i8] c"gensprep error parsing a directive %s.\00", align 1
@usprepTypeNames = internal global [5 x ptr] [ptr @.str.34, ptr @.str.35, ptr @.str.36, ptr @.str.37, ptr @.str.38], align 16
@.str.31 = private unnamed_addr constant [45 x i8] c"Could not parse code point range. Error: %s\0A\00", align 1
@.str.32 = private unnamed_addr constant [41 x i8] c"gensprep: syntax error in field 0 at %s\0A\00", align 1
@.str.33 = private unnamed_addr constant [53 x i8] c"gensprep error parsing  %s line %s at %s. Error: %s\0A\00", align 1

; Function Attrs: nounwind uwtable
define internal void @strprepProfileLineFn(ptr noundef %0, ptr noundef %1, i32 noundef %2, ptr noundef %3) #0 {
  %5 = alloca ptr, align 8
  %6 = alloca ptr, align 8
  %7 = alloca i32, align 4
  %8 = alloca ptr, align 8
  %9 = alloca [40 x i32], align 16
  %10 = alloca ptr, align 8
  %11 = alloca ptr, align 8
  %12 = alloca i32, align 4
  %13 = alloca i32, align 4
  %14 = alloca ptr, align 8
  %15 = alloca i32, align 4
  %16 = alloca i32, align 4
  %17 = alloca ptr, align 8
  %18 = alloca ptr, align 8
  %19 = alloca i32, align 4
  store ptr %0, ptr %5, align 8, !tbaa !20
  store ptr %1, ptr %6, align 8, !tbaa !8
  store i32 %2, ptr %7, align 4, !tbaa !4
  store ptr %3, ptr %8, align 8, !tbaa !20
  call void @llvm.lifetime.start.p0(i64 160, ptr %9) #7
  call void @llvm.lifetime.start.p0(i64 8, ptr %10) #7
  call void @llvm.lifetime.start.p0(i64 8, ptr %11) #7
  call void @llvm.lifetime.start.p0(i64 4, ptr %12) #7
  call void @llvm.lifetime.start.p0(i64 4, ptr %13) #7
  call void @llvm.lifetime.start.p0(i64 8, ptr %14) #7
  call void @llvm.lifetime.start.p0(i64 4, ptr %15) #7
  store i32 0, ptr %15, align 4, !tbaa !4
  call void @llvm.lifetime.start.p0(i64 4, ptr %16) #7
  store i32 0, ptr %16, align 4, !tbaa !4
  call void @llvm.lifetime.start.p0(i64 8, ptr %17) #7
  %20 = load ptr, ptr %5, align 8, !tbaa !20
  store ptr %20, ptr %17, align 8, !tbaa !12
  call void @llvm.lifetime.start.p0(i64 8, ptr %18) #7
  %21 = load ptr, ptr %6, align 8, !tbaa !8
  %22 = getelementptr inbounds [2 x ptr], ptr %21, i64 0
  %23 = getelementptr inbounds [2 x ptr], ptr %22, i64 0, i64 0
  %24 = load ptr, ptr %23, align 8, !tbaa !12
  %25 = call ptr @u_skipWhitespace(ptr noundef %24)
  store ptr %25, ptr %18, align 8, !tbaa !12
  %26 = load ptr, ptr %18, align 8, !tbaa !12
  %27 = load i8, ptr %26, align 1, !tbaa !19
  %28 = sext i8 %27 to i32
  %29 = icmp eq i32 %28, 64
  br i1 %29, label %30, label %66

30:                                               ; preds = %4
  %31 = load ptr, ptr %18, align 8, !tbaa !12
  %32 = getelementptr inbounds nuw i8, ptr %31, i32 1
  store ptr %32, ptr %18, align 8, !tbaa !12
  %33 = load ptr, ptr %6, align 8, !tbaa !8
  %34 = getelementptr inbounds [2 x ptr], ptr %33, i64 0
  %35 = getelementptr inbounds [2 x ptr], ptr %34, i64 0, i64 1
  %36 = load ptr, ptr %35, align 8, !tbaa !12
  %37 = load ptr, ptr %18, align 8, !tbaa !12
  %38 = ptrtoint ptr %36 to i64
  %39 = ptrtoint ptr %37 to i64
  %40 = sub i64 %38, %39
  %41 = trunc i64 %40 to i32
  store i32 %41, ptr %13, align 4, !tbaa !4
  %42 = load i32, ptr %13, align 4, !tbaa !4
  %43 = icmp sge i32 %42, 9
  br i1 %43, label %44, label %49

44:                                               ; preds = %30
  %45 = load ptr, ptr %18, align 8, !tbaa !12
  %46 = call i32 @strncmp(ptr noundef %45, ptr noundef @.str.29, i64 noundef 9) #8
  %47 = icmp eq i32 %46, 0
  br i1 %47, label %48, label %49

48:                                               ; preds = %44
  store i8 1, ptr getelementptr inbounds nuw (%struct.UOption, ptr getelementptr inbounds ([12 x %struct.UOption], ptr @options, i64 0, i64 8), i32 0, i32 6), align 2, !tbaa !18
  store i32 1, ptr %19, align 4
  br label %180

49:                                               ; preds = %44, %30
  %50 = load i32, ptr %13, align 4, !tbaa !4
  %51 = icmp sge i32 %50, 10
  br i1 %51, label %52, label %57

52:                                               ; preds = %49
  %53 = load ptr, ptr %18, align 8, !tbaa !12
  %54 = call i32 @strncmp(ptr noundef %53, ptr noundef @.str.16, i64 noundef 10) #8
  %55 = icmp eq i32 %54, 0
  br i1 %55, label %56, label %57

56:                                               ; preds = %52
  store i8 1, ptr getelementptr inbounds nuw (%struct.UOption, ptr getelementptr inbounds ([12 x %struct.UOption], ptr @options, i64 0, i64 10), i32 0, i32 6), align 2, !tbaa !18
  store i32 1, ptr %19, align 4
  br label %180

57:                                               ; preds = %52, %49
  %58 = load ptr, ptr @stderr, align 8, !tbaa !16
  %59 = load ptr, ptr %6, align 8, !tbaa !8
  %60 = getelementptr inbounds [2 x ptr], ptr %59, i64 0
  %61 = getelementptr inbounds [2 x ptr], ptr %60, i64 0, i64 0
  %62 = load ptr, ptr %61, align 8, !tbaa !12
  %63 = call i32 (ptr, ptr, ...) @fprintf(ptr noundef %58, ptr noundef @.str.30, ptr noundef %62) #7
  br label %64

64:                                               ; preds = %57
  br label %65

65:                                               ; preds = %64
  br label %66

66:                                               ; preds = %65, %4
  %67 = load ptr, ptr %6, align 8, !tbaa !8
  %68 = getelementptr inbounds [2 x ptr], ptr %67, i64 2
  %69 = getelementptr inbounds [2 x ptr], ptr %68, i64 0, i64 0
  %70 = load ptr, ptr %69, align 8, !tbaa !12
  store ptr %70, ptr %14, align 8, !tbaa !12
  %71 = load ptr, ptr %6, align 8, !tbaa !8
  %72 = getelementptr inbounds [2 x ptr], ptr %71, i64 1
  %73 = getelementptr inbounds [2 x ptr], ptr %72, i64 0, i64 0
  %74 = load ptr, ptr %73, align 8, !tbaa !12
  store ptr %74, ptr %11, align 8, !tbaa !12
  %75 = load ptr, ptr %14, align 8, !tbaa !12
  %76 = load ptr, ptr @usprepTypeNames, align 16, !tbaa !12
  %77 = call ptr @strstr(ptr noundef %75, ptr noundef %76) #8
  %78 = icmp ne ptr %77, null
  br i1 %78, label %79, label %96

79:                                               ; preds = %66
  %80 = load ptr, ptr %18, align 8, !tbaa !12
  %81 = load ptr, ptr %8, align 8, !tbaa !20
  %82 = call i32 @u_parseCodePointRange(ptr noundef %80, ptr noundef %15, ptr noundef %16, ptr noundef %81)
  %83 = load ptr, ptr %8, align 8, !tbaa !20
  %84 = load i32, ptr %83, align 4, !tbaa !4
  %85 = icmp sgt i32 %84, 0
  br i1 %85, label %86, label %92

86:                                               ; preds = %79
  %87 = load ptr, ptr @stderr, align 8, !tbaa !16
  %88 = load ptr, ptr %8, align 8, !tbaa !20
  %89 = load i32, ptr %88, align 4, !tbaa !4
  %90 = call ptr @u_errorName_77(i32 noundef %89)
  %91 = call i32 (ptr, ptr, ...) @fprintf(ptr noundef %87, ptr noundef @.str.31, ptr noundef %90) #7
  store i32 1, ptr %19, align 4
  br label %180

92:                                               ; preds = %79
  %93 = load i32, ptr %15, align 4, !tbaa !4
  %94 = load i32, ptr %16, align 4, !tbaa !4
  %95 = load ptr, ptr %8, align 8, !tbaa !20
  call void @storeRange(i32 noundef %93, i32 noundef %94, i32 noundef 0, ptr noundef %95)
  br label %158

96:                                               ; preds = %66
  %97 = load ptr, ptr %14, align 8, !tbaa !12
  %98 = load ptr, ptr getelementptr inbounds ([5 x ptr], ptr @usprepTypeNames, i64 0, i64 2), align 16, !tbaa !12
  %99 = call ptr @strstr(ptr noundef %97, ptr noundef %98) #8
  %100 = icmp ne ptr %99, null
  br i1 %100, label %101, label %118

101:                                              ; preds = %96
  %102 = load ptr, ptr %18, align 8, !tbaa !12
  %103 = load ptr, ptr %8, align 8, !tbaa !20
  %104 = call i32 @u_parseCodePointRange(ptr noundef %102, ptr noundef %15, ptr noundef %16, ptr noundef %103)
  %105 = load ptr, ptr %8, align 8, !tbaa !20
  %106 = load i32, ptr %105, align 4, !tbaa !4
  %107 = icmp sgt i32 %106, 0
  br i1 %107, label %108, label %114

108:                                              ; preds = %101
  %109 = load ptr, ptr @stderr, align 8, !tbaa !16
  %110 = load ptr, ptr %8, align 8, !tbaa !20
  %111 = load i32, ptr %110, align 4, !tbaa !4
  %112 = call ptr @u_errorName_77(i32 noundef %111)
  %113 = call i32 (ptr, ptr, ...) @fprintf(ptr noundef %109, ptr noundef @.str.31, ptr noundef %112) #7
  store i32 1, ptr %19, align 4
  br label %180

114:                                              ; preds = %101
  %115 = load i32, ptr %15, align 4, !tbaa !4
  %116 = load i32, ptr %16, align 4, !tbaa !4
  %117 = load ptr, ptr %8, align 8, !tbaa !20
  call void @storeRange(i32 noundef %115, i32 noundef %116, i32 noundef 2, ptr noundef %117)
  br label %157

118:                                              ; preds = %96
  %119 = load ptr, ptr %14, align 8, !tbaa !12
  %120 = load ptr, ptr getelementptr inbounds ([5 x ptr], ptr @usprepTypeNames, i64 0, i64 1), align 8, !tbaa !12
  %121 = call ptr @strstr(ptr noundef %119, ptr noundef %120) #8
  %122 = icmp ne ptr %121, null
  br i1 %122, label %123, label %154

123:                                              ; preds = %118
  %124 = load ptr, ptr %18, align 8, !tbaa !12
  %125 = call i64 @strtoul(ptr noundef %124, ptr noundef %10, i32 noundef 16) #7
  %126 = trunc i64 %125 to i32
  store i32 %126, ptr %12, align 4, !tbaa !4
  %127 = load ptr, ptr %10, align 8, !tbaa !12
  %128 = load ptr, ptr %18, align 8, !tbaa !12
  %129 = icmp ule ptr %127, %128
  br i1 %129, label %137, label %130

130:                                              ; preds = %123
  %131 = load ptr, ptr %10, align 8, !tbaa !12
  %132 = load ptr, ptr %6, align 8, !tbaa !8
  %133 = getelementptr inbounds [2 x ptr], ptr %132, i64 0
  %134 = getelementptr inbounds [2 x ptr], ptr %133, i64 0, i64 1
  %135 = load ptr, ptr %134, align 8, !tbaa !12
  %136 = icmp ne ptr %131, %135
  br i1 %136, label %137, label %145

137:                                              ; preds = %130, %123
  %138 = load ptr, ptr @stderr, align 8, !tbaa !16
  %139 = load ptr, ptr %6, align 8, !tbaa !8
  %140 = getelementptr inbounds [2 x ptr], ptr %139, i64 0
  %141 = getelementptr inbounds [2 x ptr], ptr %140, i64 0, i64 0
  %142 = load ptr, ptr %141, align 8, !tbaa !12
  %143 = call i32 (ptr, ptr, ...) @fprintf(ptr noundef %138, ptr noundef @.str.32, ptr noundef %142) #7
  %144 = load ptr, ptr %8, align 8, !tbaa !20
  store i32 9, ptr %144, align 4, !tbaa !4
  call void @exit(i32 noundef 9) #10
  unreachable

145:                                              ; preds = %130
  %146 = load ptr, ptr %11, align 8, !tbaa !12
  %147 = getelementptr inbounds [40 x i32], ptr %9, i64 0, i64 0
  %148 = load ptr, ptr %8, align 8, !tbaa !20
  %149 = call i32 @u_parseCodePoints(ptr noundef %146, ptr noundef %147, i32 noundef 40, ptr noundef %148)
  store i32 %149, ptr %13, align 4, !tbaa !4
  %150 = load i32, ptr %12, align 4, !tbaa !4
  %151 = getelementptr inbounds [40 x i32], ptr %9, i64 0, i64 0
  %152 = load i32, ptr %13, align 4, !tbaa !4
  %153 = load ptr, ptr %8, align 8, !tbaa !20
  call void @storeMapping(i32 noundef %150, ptr noundef %151, i32 noundef %152, i32 noundef 1, ptr noundef %153)
  br label %156

154:                                              ; preds = %118
  %155 = load ptr, ptr %8, align 8, !tbaa !20
  store i32 3, ptr %155, align 4, !tbaa !4
  br label %156

156:                                              ; preds = %154, %145
  br label %157

157:                                              ; preds = %156, %114
  br label %158

158:                                              ; preds = %157, %92
  %159 = load ptr, ptr %8, align 8, !tbaa !20
  %160 = load i32, ptr %159, align 4, !tbaa !4
  %161 = icmp sgt i32 %160, 0
  br i1 %161, label %162, label %179

162:                                              ; preds = %158
  %163 = load ptr, ptr @stderr, align 8, !tbaa !16
  %164 = load ptr, ptr %17, align 8, !tbaa !12
  %165 = load ptr, ptr %6, align 8, !tbaa !8
  %166 = getelementptr inbounds [2 x ptr], ptr %165, i64 0
  %167 = getelementptr inbounds [2 x ptr], ptr %166, i64 0, i64 0
  %168 = load ptr, ptr %167, align 8, !tbaa !12
  %169 = load ptr, ptr %6, align 8, !tbaa !8
  %170 = getelementptr inbounds [2 x ptr], ptr %169, i64 2
  %171 = getelementptr inbounds [2 x ptr], ptr %170, i64 0, i64 0
  %172 = load ptr, ptr %171, align 8, !tbaa !12
  %173 = load ptr, ptr %8, align 8, !tbaa !20
  %174 = load i32, ptr %173, align 4, !tbaa !4
  %175 = call ptr @u_errorName_77(i32 noundef %174)
  %176 = call i32 (ptr, ptr, ...) @fprintf(ptr noundef %163, ptr noundef @.str.33, ptr noundef %164, ptr noundef %168, ptr noundef %172, ptr noundef %175) #7
  %177 = load ptr, ptr %8, align 8, !tbaa !20
  %178 = load i32, ptr %177, align 4, !tbaa !4
  call void @exit(i32 noundef %178) #10
  unreachable

179:                                              ; preds = %158
  store i32 0, ptr %19, align 4
  br label %180

180:                                              ; preds = %179, %108, %86, %56, %48
  call void @llvm.lifetime.end.p0(i64 8, ptr %18) #7
  call void @llvm.lifetime.end.p0(i64 8, ptr %17) #7
  call void @llvm.lifetime.end.p0(i64 4, ptr %16) #7
  call void @llvm.lifetime.end.p0(i64 4, ptr %15) #7
  call void @llvm.lifetime.end.p0(i64 8, ptr %14) #7
  call void @llvm.lifetime.end.p0(i64 4, ptr %13) #7
  call void @llvm.lifetime.end.p0(i64 4, ptr %12) #7
  call void @llvm.lifetime.end.p0(i64 8, ptr %11) #7
  call void @llvm.lifetime.end.p0(i64 8, ptr %10) #7
  call void @llvm.lifetime.end.p0(i64 160, ptr %9) #7
  %181 = load i32, ptr %19, align 4
  switch i32 %181, label %183 [
    i32 0, label %182
    i32 1, label %182
  ]

182:                                              ; preds = %180, %180
  ret void

183:                                              ; preds = %180
  unreachable
}