; Function Attrs: nounwind uwtable
define internal void @strprepProfileLineFn(ptr noundef %0, ptr noundef readonly captures(none) %1, i32 %2, ptr noundef %3) #0 {
  %5 = alloca [40 x i32], align 16
  %6 = alloca ptr, align 8
  %7 = alloca i32, align 4
  %8 = alloca i32, align 4
  call void @llvm.lifetime.start.p0(i64 160, ptr nonnull %5) #12
  call void @llvm.lifetime.start.p0(i64 8, ptr nonnull %6) #12
  call void @llvm.lifetime.start.p0(i64 4, ptr nonnull %7) #12
  store i32 0, ptr %7, align 4, !tbaa !4
  call void @llvm.lifetime.start.p0(i64 4, ptr nonnull %8) #12
  store i32 0, ptr %8, align 4, !tbaa !4
  %9 = load ptr, ptr %1, align 8, !tbaa !14
  %10 = tail call ptr @u_skipWhitespace(ptr noundef %9) #12
  %11 = load i8, ptr %10, align 1, !tbaa !16
  %12 = icmp eq i8 %11, 64
  br i1 %12, label %13, label %34

13:                                               ; preds = %4
  %14 = getelementptr inbounds nuw i8, ptr %10, i64 1
  %15 = getelementptr inbounds nuw i8, ptr %1, i64 8
  %16 = load ptr, ptr %15, align 8, !tbaa !14
  %17 = ptrtoint ptr %16 to i64
  %18 = ptrtoint ptr %14 to i64
  %19 = sub i64 %17, %18
  %20 = trunc i64 %19 to i32
  %21 = icmp sgt i32 %20, 8
  br i1 %21, label %22, label %.thread

22:                                               ; preds = %13
  %23 = tail call i32 @strncmp(ptr noundef nonnull dereferenceable(1) %14, ptr noundef nonnull dereferenceable(10) @.str.29, i64 noundef 9) #14
  %24 = icmp eq i32 %23, 0
  br i1 %24, label %25, label %26

25:                                               ; preds = %22
  store i8 1, ptr getelementptr inbounds nuw (i8, ptr @options, i64 354), align 2, !tbaa !15
  br label %89

26:                                               ; preds = %22
  %.not51 = icmp eq i32 %20, 9
  br i1 %.not51, label %.thread, label %27

27:                                               ; preds = %26
  %28 = tail call i32 @strncmp(ptr noundef nonnull dereferenceable(1) %14, ptr noundef nonnull dereferenceable(11) @.str.16, i64 noundef 10) #14
  %29 = icmp eq i32 %28, 0
  br i1 %29, label %30, label %.thread

30:                                               ; preds = %27
  store i8 1, ptr getelementptr inbounds nuw (i8, ptr @options, i64 434), align 2, !tbaa !15
  br label %89

.thread:                                          ; preds = %13, %27, %26
  %31 = load ptr, ptr @stderr, align 8, !tbaa !12
  %32 = load ptr, ptr %1, align 8, !tbaa !14
  %33 = tail call i32 (ptr, ptr, ...) @fprintf(ptr noundef %31, ptr noundef nonnull @.str.30, ptr noundef %32) #13
  br label %34

34:                                               ; preds = %.thread, %4
  %.0 = phi ptr [ %14, %.thread ], [ %10, %4 ]
  %35 = getelementptr inbounds nuw i8, ptr %1, i64 32
  %36 = load ptr, ptr %35, align 8, !tbaa !14
  %37 = getelementptr inbounds nuw i8, ptr %1, i64 16
  %38 = load ptr, ptr %37, align 8, !tbaa !14
  %39 = tail call ptr @strstr(ptr noundef nonnull dereferenceable(1) %36, ptr noundef nonnull dereferenceable(1) @.str.34) #14
  %.not = icmp eq ptr %39, null
  br i1 %.not, label %51, label %40

40:                                               ; preds = %34
  %41 = call i32 @u_parseCodePointRange(ptr noundef nonnull %.0, ptr noundef nonnull %7, ptr noundef nonnull %8, ptr noundef %3) #12
  %42 = load i32, ptr %3, align 4, !tbaa !4
  %43 = icmp sgt i32 %42, 0
  br i1 %43, label %44, label %48

44:                                               ; preds = %40
  %45 = load ptr, ptr @stderr, align 8, !tbaa !12
  %46 = call ptr @u_errorName_77(i32 noundef %42) #12
  %47 = call i32 (ptr, ptr, ...) @fprintf(ptr noundef %45, ptr noundef nonnull @.str.31, ptr noundef %46) #13
  br label %89

48:                                               ; preds = %40
  %49 = load i32, ptr %7, align 4, !tbaa !4
  %50 = load i32, ptr %8, align 4, !tbaa !4
  call void @storeRange(i32 noundef %49, i32 noundef %50, i32 noundef 0, ptr noundef nonnull %3) #12
  br label %79

51:                                               ; preds = %34
  %52 = tail call ptr @strstr(ptr noundef nonnull dereferenceable(1) %36, ptr noundef nonnull dereferenceable(1) @.str.36) #14
  %.not46 = icmp eq ptr %52, null
  br i1 %.not46, label %64, label %53

53:                                               ; preds = %51
  %54 = call i32 @u_parseCodePointRange(ptr noundef nonnull %.0, ptr noundef nonnull %7, ptr noundef nonnull %8, ptr noundef %3) #12
  %55 = load i32, ptr %3, align 4, !tbaa !4
  %56 = icmp sgt i32 %55, 0
  br i1 %56, label %57, label %61

57:                                               ; preds = %53
  %58 = load ptr, ptr @stderr, align 8, !tbaa !12
  %59 = call ptr @u_errorName_77(i32 noundef %55) #12
  %60 = call i32 (ptr, ptr, ...) @fprintf(ptr noundef %58, ptr noundef nonnull @.str.31, ptr noundef %59) #13
  br label %89

61:                                               ; preds = %53
  %62 = load i32, ptr %7, align 4, !tbaa !4
  %63 = load i32, ptr %8, align 4, !tbaa !4
  call void @storeRange(i32 noundef %62, i32 noundef %63, i32 noundef 2, ptr noundef nonnull %3) #12
  br label %79

64:                                               ; preds = %51
  %65 = tail call ptr @strstr(ptr noundef nonnull dereferenceable(1) %36, ptr noundef nonnull dereferenceable(1) @.str.35) #14
  %.not47 = icmp eq ptr %65, null
  br i1 %.not47, label %.thread50, label %66

66:                                               ; preds = %64
  %67 = call i64 @strtoul(ptr noundef nonnull %.0, ptr noundef nonnull %6, i32 noundef 16) #12
  %68 = trunc i64 %67 to i32
  %69 = load ptr, ptr %6, align 8, !tbaa !14
  %.not48 = icmp ugt ptr %69, %.0
  br i1 %.not48, label %70, label %73

70:                                               ; preds = %66
  %71 = getelementptr inbounds nuw i8, ptr %1, i64 8
  %72 = load ptr, ptr %71, align 8, !tbaa !14
  %.not49 = icmp eq ptr %69, %72
  br i1 %.not49, label %77, label %73

73:                                               ; preds = %70, %66
  %74 = load ptr, ptr @stderr, align 8, !tbaa !12
  %75 = load ptr, ptr %1, align 8, !tbaa !14
  %76 = tail call i32 (ptr, ptr, ...) @fprintf(ptr noundef %74, ptr noundef nonnull @.str.32, ptr noundef %75) #13
  store i32 9, ptr %3, align 4, !tbaa !4
  tail call void @exit(i32 noundef 9) #18
  unreachable

77:                                               ; preds = %70
  %78 = call i32 @u_parseCodePoints(ptr noundef %38, ptr noundef nonnull %5, i32 noundef 40, ptr noundef %3) #12
  call void @storeMapping(i32 noundef %68, ptr noundef nonnull %5, i32 noundef %78, i32 noundef 1, ptr noundef %3) #12
  br label %79

.thread50:                                        ; preds = %64
  store i32 3, ptr %3, align 4, !tbaa !4
  br label %81

79:                                               ; preds = %61, %77, %48
  %.pr = load i32, ptr %3, align 4, !tbaa !4
  %80 = icmp sgt i32 %.pr, 0
  br i1 %80, label %._crit_edge, label %89

._crit_edge:                                      ; preds = %79
  %.pre = load ptr, ptr %35, align 8, !tbaa !14
  br label %81

81:                                               ; preds = %._crit_edge, %.thread50
  %82 = phi ptr [ %36, %.thread50 ], [ %.pre, %._crit_edge ]
  %83 = phi i32 [ 3, %.thread50 ], [ %.pr, %._crit_edge ]
  %84 = load ptr, ptr @stderr, align 8, !tbaa !12
  %85 = load ptr, ptr %1, align 8, !tbaa !14
  %86 = call ptr @u_errorName_77(i32 noundef %83) #12
  %87 = call i32 (ptr, ptr, ...) @fprintf(ptr noundef %84, ptr noundef nonnull @.str.33, ptr noundef %0, ptr noundef %85, ptr noundef %82, ptr noundef %86) #13
  %88 = load i32, ptr %3, align 4, !tbaa !4
  call void @exit(i32 noundef %88) #16
  unreachable

89:                                               ; preds = %79, %57, %44, %30, %25
  call void @llvm.lifetime.end.p0(i64 4, ptr nonnull %8) #12
  call void @llvm.lifetime.end.p0(i64 4, ptr nonnull %7) #12
  call void @llvm.lifetime.end.p0(i64 8, ptr nonnull %6) #12
  call void @llvm.lifetime.end.p0(i64 160, ptr nonnull %5) #12
  ret void
}